target datalayout = "e-m:e-p270:32:32-p271:32:32-p272:64:64-i64:64-i128:128-f80:128-n8:16:32:64-S128"
target triple = "x86_64-unknown-linux-gnu"

%"class.std::__cxx11::basic_string" = type { %"struct.std::__cxx11::basic_string<char>::_Alloc_hider", i64, %union.anon }
%"struct.std::__cxx11::basic_string<char>::_Alloc_hider" = type { ptr }
%union.anon = type { i64, [8 x i8] }
%"class.Imf_3_2::StdOFStream" = type <{ %"class.Imf_3_2::OStream", ptr, i8, [7 x i8] }>
%"class.Imf_3_2::OStream" = type { ptr, %"class.std::__cxx11::basic_string" }

; Function Attrs: mustprogress nounwind uwtable
define internal void @_ZN7Imf_3_212_GLOBAL__N_110clearErrorEv() #5 {
entry:
  %call = call ptr @__errno_location() #13
  store i32 0, ptr %call, align 4
  ret void
}

; Function Attrs: mustprogress uwtable
define void @_ZN7Imf_3_211StdOFStream5writeEPKci(ptr noundef nonnull align 8 dereferenceable(49) %this, ptr noundef %c, i32 noundef %n) unnamed_addr #4 align 2 {
entry:
  %this.addr = alloca ptr, align 8
  %c.addr = alloca ptr, align 8
  %n.addr = alloca i32, align 4
  store ptr %this, ptr %this.addr, align 8
  store ptr %c, ptr %c.addr, align 8
  store i32 %n, ptr %n.addr, align 4
  %this1 = load ptr, ptr %this.addr, align 8
  call void @_ZN7Imf_3_212_GLOBAL__N_110clearErrorEv()
  %_os = getelementptr inbounds %"class.Imf_3_2::StdOFStream", ptr %this1, i32 0, i32 1
  %0 = load ptr, ptr %_os, align 8
  %1 = load ptr, ptr %c.addr, align 8
  %2 = load i32, ptr %n.addr, align 4
  %conv = sext i32 %2 to i64
  %call = call noundef nonnull align 8 dereferenceable(8) ptr @_ZNSo5writeEPKcl(ptr noundef nonnull align 8 dereferenceable(8) %0, ptr noundef %1, i64 noundef %conv)
  %_os2 = getelementptr inbounds %"class.Imf_3_2::StdOFStream", ptr %this1, i32 0, i32 1
  %3 = load ptr, ptr %_os2, align 8
  call void @_ZN7Imf_3_212_GLOBAL__N_110checkErrorERSo(ptr noundef nonnull align 8 dereferenceable(8) %3)
  ret void
}